target datalayout = "e-m:e-p270:32:32-p271:32:32-p272:64:64-i64:64-i128:128-f80:128-n8:16:32:64-S128"
target triple = "x86_64-pc-linux-gnu"

%"class.std::__cxx11::basic_string" = type { %"struct.std::__cxx11::basic_string<char>::_Alloc_hider", i64, %union.anon }
%"struct.std::__cxx11::basic_string<char>::_Alloc_hider" = type { ptr }
%union.anon = type { i64, [8 x i8] }
%"class.google::protobuf::internal::LogMessage" = type { i32, ptr, i32, %"class.std::__cxx11::basic_string" }
%"class.google::protobuf::internal::LogFinisher" = type { i8 }

@.str = private unnamed_addr constant [146 x i8] c"generated/home/dtcxzyw/WorkSpace/Projects/compilers/llvm-opt-benchmark/bench/opencv/opencv/3rdparty/protobuf/src/google/protobuf/stubs/strutil.cc\00", align 1
@.str.7 = private unnamed_addr constant [23 x i8] c"CHECK failed: i >= 0: \00", align 1
@.str.8 = private unnamed_addr constant [52 x i8] c"FastHexToBuffer() wants non-negative integers, not \00", align 1
@_ZZN6google8protobuf15FastHexToBufferEiPcE9hexdigits = internal global ptr @.str.9, align 8

; Function Attrs: mustprogress uwtable
define hidden noundef ptr @_ZN6google8protobuf15FastHexToBufferEiPc(i32 noundef %0, ptr noundef %1) #4 personality ptr @__gxx_personality_v0 {
  %3 = alloca i32, align 4
  %4 = alloca ptr, align 8
  %5 = alloca %"class.google::protobuf::internal::LogMessage", align 8
  %6 = alloca i1, align 1
  %7 = alloca i1, align 1
  %8 = alloca ptr, align 8
  %9 = alloca i32, align 4
  %10 = alloca %"class.google::protobuf::internal::LogFinisher", align 1
  %11 = alloca ptr, align 8
  store i32 %0, ptr %3, align 4, !tbaa !15
  store ptr %1, ptr %4, align 8, !tbaa !8
  %12 = load i32, ptr %3, align 4, !tbaa !15
  %13 = icmp sge i32 %12, 0
  store i1 false, ptr %6, align 1
  store i1 false, ptr %7, align 1
  call void @llvm.lifetime.start.p0(i64 1, ptr %10) #3
  br i1 %13, label %14, label %15

14:                                               ; preds = %2
  br label %24

15:                                               ; preds = %2
  call void @llvm.lifetime.start.p0(i64 56, ptr %5) #3
  store i1 true, ptr %6, align 1
  call void @_ZN6google8protobuf8internal10LogMessageC1ENS0_8LogLevelEPKci(ptr noundef nonnull align 8 dereferenceable(56) %5, i32 noundef 3, ptr noundef @.str, i32 noundef 887)
  store i1 true, ptr %7, align 1
  %16 = invoke noundef nonnull align 8 dereferenceable(56) ptr @_ZN6google8protobuf8internal10LogMessagelsEPKc(ptr noundef nonnull align 8 dereferenceable(56) %5, ptr noundef @.str.7)
          to label %17 unwind label %52

17:                                               ; preds = %15
  %18 = invoke noundef nonnull align 8 dereferenceable(56) ptr @_ZN6google8protobuf8internal10LogMessagelsEPKc(ptr noundef nonnull align 8 dereferenceable(56) %16, ptr noundef @.str.8)
          to label %19 unwind label %52

19:                                               ; preds = %17
  %20 = load i32, ptr %3, align 4, !tbaa !15
  %21 = invoke noundef nonnull align 8 dereferenceable(56) ptr @_ZN6google8protobuf8internal10LogMessagelsEi(ptr noundef nonnull align 8 dereferenceable(56) %18, i32 noundef %20)
          to label %22 unwind label %52

22:                                               ; preds = %19
  invoke void @_ZN6google8protobuf8internal11LogFinisheraSERNS1_10LogMessageE(ptr noundef nonnull align 1 dereferenceable(1) %10, ptr noundef nonnull align 8 dereferenceable(56) %21)
          to label %23 unwind label %56

23:                                               ; preds = %22
  br label %24

24:                                               ; preds = %23, %14
  call void @llvm.lifetime.end.p0(i64 1, ptr %10) #3
  %25 = load i1, ptr %7, align 1
  br i1 %25, label %26, label %27

26:                                               ; preds = %24
  call void @_ZN6google8protobuf8internal10LogMessageD1Ev(ptr noundef nonnull align 8 dereferenceable(56) %5) #3
  br label %27

27:                                               ; preds = %26, %24
  %28 = load i1, ptr %6, align 1
  br i1 %28, label %29, label %30

29:                                               ; preds = %27
  call void @llvm.lifetime.end.p0(i64 56, ptr %5) #3
  br label %30

30:                                               ; preds = %29, %27
  call void @llvm.lifetime.start.p0(i64 8, ptr %11) #3
  %31 = load ptr, ptr %4, align 8, !tbaa !8
  %32 = getelementptr inbounds i8, ptr %31, i64 21
  store ptr %32, ptr %11, align 8, !tbaa !8
  %33 = load ptr, ptr %11, align 8, !tbaa !8
  %34 = getelementptr inbounds i8, ptr %33, i32 -1
  store ptr %34, ptr %11, align 8, !tbaa !8
  store i8 0, ptr %33, align 1, !tbaa !10
  br label %35

35:                                               ; preds = %46, %30
  %36 = load ptr, ptr @_ZZN6google8protobuf15FastHexToBufferEiPcE9hexdigits, align 8, !tbaa !8
  %37 = load i32, ptr %3, align 4, !tbaa !15
  %38 = and i32 %37, 15
  %39 = sext i32 %38 to i64
  %40 = getelementptr inbounds i8, ptr %36, i64 %39
  %41 = load i8, ptr %40, align 1, !tbaa !10
  %42 = load ptr, ptr %11, align 8, !tbaa !8
  %43 = getelementptr inbounds i8, ptr %42, i32 -1
  store ptr %43, ptr %11, align 8, !tbaa !8
  store i8 %41, ptr %42, align 1, !tbaa !10
  %44 = load i32, ptr %3, align 4, !tbaa !15
  %45 = ashr i32 %44, 4
  store i32 %45, ptr %3, align 4, !tbaa !15
  br label %46

46:                                               ; preds = %35
  %47 = load i32, ptr %3, align 4, !tbaa !15
  %48 = icmp sgt i32 %47, 0
  br i1 %48, label %35, label %49, !llvm.loop !68

49:                                               ; preds = %46
  %50 = load ptr, ptr %11, align 8, !tbaa !8
  %51 = getelementptr inbounds i8, ptr %50, i64 1
  call void @llvm.lifetime.end.p0(i64 8, ptr %11) #3
  ret ptr %51

52:                                               ; preds = %19, %17, %15
  %53 = landingpad { ptr, i32 }
          cleanup
  %54 = extractvalue { ptr, i32 } %53, 0
  store ptr %54, ptr %8, align 8
  %55 = extractvalue { ptr, i32 } %53, 1
  store i32 %55, ptr %9, align 4
  br label %60

56:                                               ; preds = %22
  %57 = landingpad { ptr, i32 }
          cleanup
  %58 = extractvalue { ptr, i32 } %57, 0
  store ptr %58, ptr %8, align 8
  %59 = extractvalue { ptr, i32 } %57, 1
  store i32 %59, ptr %9, align 4
  call void @llvm.lifetime.end.p0(i64 1, ptr %10) #3
  br label %60

60:                                               ; preds = %56, %52
  %61 = load i1, ptr %7, align 1
  br i1 %61, label %62, label %63

62:                                               ; preds = %60
  call void @_ZN6google8protobuf8internal10LogMessageD1Ev(ptr noundef nonnull align 8 dereferenceable(56) %5) #3
  br label %63

63:                                               ; preds = %62, %60
  %64 = load i1, ptr %6, align 1
  br i1 %64, label %65, label %66

65:                                               ; preds = %63
  call void @llvm.lifetime.end.p0(i64 56, ptr %5) #3
  br label %66

66:                                               ; preds = %65, %63
  br label %67

67:                                               ; preds = %66
  %68 = load ptr, ptr %8, align 8
  %69 = load i32, ptr %9, align 4
  %70 = insertvalue { ptr, i32 } poison, ptr %68, 0
  %71 = insertvalue { ptr, i32 } %70, i32 %69, 1
  resume { ptr, i32 } %71
}